target datalayout = "e-m:e-p270:32:32-p271:32:32-p272:64:64-i64:64-i128:128-f80:128-n8:16:32:64-S128"
target triple = "x86_64-pc-linux-gnu"

%"class.std::__cxx11::basic_string" = type { %"struct.std::__cxx11::basic_string<char>::_Alloc_hider", i64, %union.anon }
%"struct.std::__cxx11::basic_string<char>::_Alloc_hider" = type { ptr }
%union.anon = type { i64, [8 x i8] }
%struct.gmx_hw_opt_t = type <{ i32, i32, i32, i32, i32, i32, i32, [4 x i8], %"class.std::__cxx11::basic_string", %"class.std::__cxx11::basic_string", i8, [7 x i8] }>
%"class.gmx::ArrayRef" = type { %"struct.gmx::ArrayRefIter", %"struct.gmx::ArrayRefIter" }
%"struct.gmx::ArrayRefIter" = type { ptr }
%"struct.gmx::MdrunOptions" = type { i8, i8, i8, i8, i32, %"struct.gmx::CheckpointOptions", i64, float, %"struct.gmx::TimingOptions", i8, i8, [2 x i8], %"struct.gmx::ImdOptions", i8, i32 }
%"struct.gmx::CheckpointOptions" = type { i8, float }
%"struct.gmx::TimingOptions" = type <{ i32, i8, [3 x i8] }>
%"struct.gmx::ImdOptions" = type <{ i32, i8, i8, i8, i8 }>
%"struct.gmx::DomdecOptions" = type { i8, i8, [3 x i32], i32, i32, float, float, i32, float, ptr, ptr, ptr }
%struct.ReplicaExchangeParameters = type { i32, i32, i32 }
%"class.std::unique_ptr.10" = type { %"struct.std::__uniq_ptr_data.11" }
%"struct.std::__uniq_ptr_data.11" = type { %"class.std::__uniq_ptr_impl.12" }
%"class.std::__uniq_ptr_impl.12" = type { %"class.std::tuple.13" }
%"class.std::tuple.13" = type { %"struct.std::_Tuple_impl.14" }
%"struct.std::_Tuple_impl.14" = type { %"struct.std::_Head_base.17" }
%"struct.std::_Head_base.17" = type { ptr }
%"class.std::unique_ptr.18" = type { %"struct.std::__uniq_ptr_data.19" }
%"struct.std::__uniq_ptr_data.19" = type { %"class.std::__uniq_ptr_impl.20" }
%"class.std::__uniq_ptr_impl.20" = type { %"class.std::tuple.21" }
%"class.std::tuple.21" = type { %"struct.std::_Tuple_impl.22" }
%"struct.std::_Tuple_impl.22" = type { %"struct.std::_Head_base.25" }
%"struct.std::_Head_base.25" = type { ptr }
%"class.gmx::SimulationInputHandle" = type { %"class.std::unique_ptr.26" }
%"class.std::unique_ptr.26" = type { %"struct.std::__uniq_ptr_data.27" }
%"struct.std::__uniq_ptr_data.27" = type { %"class.std::__uniq_ptr_impl.28" }
%"class.std::__uniq_ptr_impl.28" = type { %"class.std::tuple.29" }
%"class.std::tuple.29" = type { %"struct.std::_Tuple_impl.30" }
%"struct.std::_Tuple_impl.30" = type { %"struct.std::_Head_base.33" }
%"struct.std::_Head_base.33" = type { ptr }
%"class.gmx::Mdrunner::BuilderImplementation" = type { ptr, ptr, ptr, ptr, ptr, %"struct.gmx::MdrunOptions", %"struct.gmx::DomdecOptions", %struct.ReplicaExchangeParameters, i32, ptr, ptr, ptr, float, i32, %"class.std::unique_ptr.18", ptr, %struct.gmx_hw_opt_t, %"class.gmx::ArrayRef", ptr, ptr, %"class.std::unique_ptr.10", %"class.gmx::SimulationInputHandle" }

; Function Attrs: mustprogress nounwind uwtable
define noundef nonnull align 8 dereferenceable(376) ptr @_ZN3gmx8Mdrunner21BuilderImplementation20setExtraMdrunOptionsERKNS_12MdrunOptionsEfNS_16StartingBehaviorE(ptr noundef nonnull align 8 dereferenceable(376) %0, ptr noundef nonnull align 8 dereferenceable(56) %1, float noundef %2, i32 noundef %3) #2 align 2 {
  %5 = alloca ptr, align 8
  %6 = alloca ptr, align 8
  %7 = alloca float, align 4
  %8 = alloca i32, align 4
  store ptr %0, ptr %5, align 8, !tbaa !3229
  store ptr %1, ptr %6, align 8, !tbaa !1046
  store float %2, ptr %7, align 4, !tbaa !101
  store i32 %3, ptr %8, align 4, !tbaa !1323
  %9 = load ptr, ptr %5, align 8
  %10 = load ptr, ptr %6, align 8, !tbaa !1046
  %11 = getelementptr inbounds nuw %"class.gmx::Mdrunner::BuilderImplementation", ptr %9, i32 0, i32 5
  call void @llvm.memcpy.p0.p0.i64(ptr align 8 %11, ptr align 8 %10, i64 56, i1 false), !tbaa.struct !98
  %12 = load float, ptr %7, align 4, !tbaa !101
  %13 = getelementptr inbounds nuw %"class.gmx::Mdrunner::BuilderImplementation", ptr %9, i32 0, i32 12
  store float %12, ptr %13, align 8, !tbaa !3240
  %14 = load i32, ptr %8, align 4, !tbaa !1323
  %15 = getelementptr inbounds nuw %"class.gmx::Mdrunner::BuilderImplementation", ptr %9, i32 0, i32 13
  store i32 %14, ptr %15, align 4, !tbaa !3241
  ret ptr %9
}