; Function Attrs: mustprogress nofree norecurse nosync nounwind willreturn memory(argmem: readwrite) uwtable
define noundef nonnull align 8 dereferenceable(376) ptr @_ZN3gmx8Mdrunner21BuilderImplementation20setExtraMdrunOptionsERKNS_12MdrunOptionsEfNS_16StartingBehaviorE(ptr noundef nonnull returned writeonly align 8 dereferenceable(376) initializes((40, 96), (200, 208)) %0, ptr noundef nonnull readonly align 8 captures(none) dereferenceable(56) %1, float noundef %2, i32 noundef %3) local_unnamed_addr #25 align 2 {
  %5 = getelementptr inbounds nuw i8, ptr %0, i64 40
  tail call void @llvm.memcpy.p0.p0.i64(ptr noundef nonnull align 8 dereferenceable(56) %5, ptr noundef nonnull align 8 dereferenceable(56) %1, i64 56, i1 false), !tbaa.struct !94
  %6 = getelementptr inbounds nuw i8, ptr %0, i64 200
  store float %2, ptr %6, align 8, !tbaa !1217
  %7 = getelementptr inbounds nuw i8, ptr %0, i64 204
  store i32 %3, ptr %7, align 4, !tbaa !1218
  ret ptr %0
}